(lp0
(S'cppflags'
p1
ccopy_reg
_reconstructor
p2
(cino.utils
SpaceList
p3
c__builtin__
list
p4
(lp5
S'-mmcu=atmega328p'
p6
aS'-DF_CPU=16000000L'
p7
aS'-DARDUINO=156'
p8
aS'-I/Applications/Arduino.app/Contents/Resources/Java/hardware/arduino/avr/cores/arduino'
p9
aS'-ffunction-sections'
p10
aS'-fdata-sections'
p11
aS'-g'
p12
aS'-Os'
p13
aS'-w'
p14
aS'-I/Applications/Arduino.app/Contents/Resources/Java/hardware/arduino/avr/variants/standard'
p15
aS'-I/Applications/Arduino.app/Contents/Resources/Java/hardware/arduino/avr/cores/arduino'
p16
aS'-I/Applications/Arduino.app/Contents/Resources/Java/hardware/arduino/avr/cores/arduino/avr-libc'
p17
atp18
Rp19
tp20
a(S'cxx'
p21
S'/Applications/Arduino.app/Contents/Resources/Java/hardware/tools/avr/bin/avr-g++'
p22
tp23
a(S'build_dir'
p24
S'.build/uno'
p25
tp26
a(S'avrdude'
p27
S'/Applications/Arduino.app/Contents/Resources/Java/hardware/tools/avr/bin/avrdude'
p28
tp29
a(S'ar'
p30
S'/Applications/Arduino.app/Contents/Resources/Java/hardware/tools/avr/bin/avr-ar'
p31
tp32
a(S'names'
p33
(dp34
S'cpp'
p35
S'%s.cpp'
p36
sS'obj'
p37
S'%s.o'
p38
sS'lib'
p39
S'lib%s.a'
p40
sS'deps'
p41
S'%s.d'
p42
stp43
a(S'ldflags'
p44
g2
(g3
g4
(lp45
g6
aS'-Wl,-Os'
p46
aS'-Wl,--gc-sections'
p47
atp48
Rp49
tp50
a(S'arduino_lib_version'
p51
g2
(cino.environment
Version
p52
c__builtin__
tuple
p53
(I1
I5
I6
tp54
tp55
Rp56
tp57
a(S'objcopy'
p58
S'/Applications/Arduino.app/Contents/Resources/Java/hardware/tools/avr/bin/avr-objcopy'
p59
tp60
a(S'board_models'
p61
cino.environment
BoardModels
p62
((lp63
(lp64
S'menu'
p65
a(dp66
S'cpu'
p67
S'Processor'
p68
saa(lp69
S'yun'
p70
a(dp71
S'name'
p72
S'Arduino Y\xc3\xban'
p73
sS'vid'
p74
(dp75
S'1'
p76
S'0x2341'
p77
sS'0'
p78
S'0x2341'
p79
ssS'pid'
p80
(dp81
g76
S'0x8041'
p82
sg78
S'0x0041'
p83
ssS'upload'
p84
(dp85
S'protocol'
p86
S'avr109'
p87
sS'disable_flushing'
p88
S'true'
p89
sS'tool'
p90
S'avrdude'
p91
sS'maximum_data_size'
p92
S'2560'
p93
sS'via_ssh'
p94
S'true'
p95
sS'maximum_size'
p96
S'28672'
p97
sS'use_1200bps_touch'
p98
S'true'
p99
sS'speed'
p100
S'57600'
p101
sS'wait_for_upload_port'
p102
S'true'
p103
ssS'build'
p104
(dp105
S'core'
p106
S'arduino'
p107
sS'f_cpu'
p108
S'16000000L'
p109
sS'vid'
p110
S'0x2341'
p111
sS'usb_product'
p112
S'"Arduino Yun"'
p113
sS'pid'
p114
S'0x8041'
p115
sS'extra_flags'
p116
S'{build.usb_flags}'
p117
sS'board'
p118
S'AVR_YUN'
p119
sS'mcu'
p120
S'atmega32u4'
p121
sS'variant'
p122
S'yun'
p123
ssS'bootloader'
p124
(dp125
S'extended_fuses'
p126
S'0xfb'
p127
sS'high_fuses'
p128
S'0xd8'
p129
sS'low_fuses'
p130
S'0xff'
p131
sS'lock_bits'
p132
S'0x2F'
p133
sS'tool'
p134
S'avrdude'
p135
sS'file'
p136
S'caterina/Caterina-Yun.hex'
p137
sS'unlock_bits'
p138
S'0x3F'
p139
ssaa(lp140
S'uno'
p141
a(dp142
S'name'
p143
S'Arduino Uno'
p144
sS'vid'
p145
(dp146
g76
S'0x2341'
p147
sg78
S'0x2341'
p148
ssS'pid'
p149
(dp150
g76
S'0x0001'
p151
sg78
S'0x0043'
p152
ssS'upload'
p153
(dp154
S'speed'
p155
S'115200'
p156
sS'tool'
p157
S'avrdude'
p158
sS'protocol'
p159
S'arduino'
p160
sS'maximum_size'
p161
S'32256'
p162
sS'maximum_data_size'
p163
S'2048'
p164
ssS'build'
p165
(dp166
S'core'
p167
S'arduino'
p168
sS'mcu'
p169
S'atmega328p'
p170
sS'f_cpu'
p171
S'16000000L'
p172
sS'board'
p173
S'AVR_UNO'
p174
sS'variant'
p175
S'standard'
p176
ssS'bootloader'
p177
(dp178
S'extended_fuses'
p179
S'0x05'
p180
sS'high_fuses'
p181
S'0xDE'
p182
sS'low_fuses'
p183
S'0xFF'
p184
sS'lock_bits'
p185
S'0x0F'
p186
sS'tool'
p187
S'avrdude'
p188
sS'file'
p189
S'optiboot/optiboot_atmega328.hex'
p190
sS'unlock_bits'
p191
S'0x3F'
p192
ssaa(lp193
S'diecimila'
p194
a(dp195
S'menu'
p196
(dp197
S'cpu'
p198
(dp199
S'atmega168'
p200
(dp201
S'bootloader'
p202
(dp203
S'extended_fuses'
p204
S'0x00'
p205
sS'high_fuses'
p206
S'0xdd'
p207
sS'file'
p208
S'atmega/ATmegaBOOT_168_diecimila.hex'
p209
ssS'upload'
p210
(dp211
S'maximum_size'
p212
S'14336'
p213
sS'speed'
p214
S'19200'
p215
sS'maximum_data_size'
p216
S'1024'
p217
ssS'-value-'
p218
S'ATmega168'
p219
sS'build'
p220
(dp221
S'mcu'
p222
S'atmega168'
p223
sssS'atmega328'
p224
(dp225
S'bootloader'
p226
(dp227
S'extended_fuses'
p228
S'0x05'
p229
sS'high_fuses'
p230
S'0xDA'
p231
sS'file'
p232
S'atmega/ATmegaBOOT_168_atmega328.hex'
p233
ssS'upload'
p234
(dp235
S'maximum_size'
p236
S'30720'
p237
sS'speed'
p238
S'57600'
p239
sS'maximum_data_size'
p240
S'2048'
p241
ssg218
S'ATmega328'
p242
sS'build'
p243
(dp244
S'mcu'
p245
S'atmega328p'
p246
sssssS'bootloader'
p247
(dp248
S'low_fuses'
p249
S'0xFF'
p250
sS'lock_bits'
p251
S'0x0F'
p252
sS'tool'
p253
S'avrdude'
p254
sS'unlock_bits'
p255
S'0x3F'
p256
ssS'build'
p257
(dp258
S'core'
p259
S'arduino'
p260
sS'f_cpu'
p261
S'16000000L'
p262
sS'board'
p263
S'AVR_DUEMILANOVE'
p264
sS'variant'
p265
S'standard'
p266
ssS'name'
p267
S'Arduino Duemilanove or Diecimila'
p268
sS'upload'
p269
(dp270
S'tool'
p271
S'avrdude'
p272
sS'protocol'
p273
S'arduino'
p274
ssaa(lp275
S'nano'
p276
a(dp277
S'menu'
p278
(dp279
S'cpu'
p280
(dp281
S'atmega168'
p282
(dp283
S'bootloader'
p284
(dp285
S'low_fuses'
p286
S'0xff'
p287
sS'extended_fuses'
p288
S'0x00'
p289
sS'high_fuses'
p290
S'0xdd'
p291
sS'file'
p292
S'atmega/ATmegaBOOT_168_diecimila.hex'
p293
ssS'upload'
p294
(dp295
S'maximum_size'
p296
S'14336'
p297
sS'speed'
p298
S'19200'
p299
sS'maximum_data_size'
p300
S'1024'
p301
ssg218
S'ATmega168'
p302
sS'build'
p303
(dp304
S'mcu'
p305
S'atmega168'
p306
sssS'atmega328'
p307
(dp308
S'bootloader'
p309
(dp310
S'low_fuses'
p311
S'0xFF'
p312
sS'extended_fuses'
p313
S'0x05'
p314
sS'high_fuses'
p315
S'0xDA'
p316
sS'file'
p317
S'atmega/ATmegaBOOT_168_atmega328.hex'
p318
ssS'upload'
p319
(dp320
S'maximum_size'
p321
S'30720'
p322
sS'speed'
p323
S'57600'
p324
sS'maximum_data_size'
p325
S'2048'
p326
ssg218
S'ATmega328'
p327
sS'build'
p328
(dp329
S'mcu'
p330
S'atmega328p'
p331
sssssS'bootloader'
p332
(dp333
S'lock_bits'
p334
S'0x0F'
p335
sS'tool'
p336
S'avrdude'
p337
sS'unlock_bits'
p338
S'0x3F'
p339
ssS'build'
p340
(dp341
S'core'
p342
S'arduino'
p343
sS'f_cpu'
p344
S'16000000L'
p345
sS'board'
p346
S'AVR_NANO'
p347
sS'variant'
p348
S'eightanaloginputs'
p349
ssS'name'
p350
S'Arduino Nano'
p351
sS'upload'
p352
(dp353
S'tool'
p354
S'avrdude'
p355
sS'protocol'
p356
S'arduino'
p357
ssaa(lp358
S'mega'
p359
a(dp360
S'name'
p361
S'Arduino Mega or Mega 2560'
p362
sS'vid'
p363
(dp364
g76
S'0x2341'
p365
sg78
S'0x2341'
p366
ssS'menu'
p367
(dp368
S'cpu'
p369
(dp370
S'atmega1280'
p371
(dp372
S'bootloader'
p373
(dp374
S'extended_fuses'
p375
S'0xF5'
p376
sS'high_fuses'
p377
S'0xDA'
p378
sS'file'
p379
S'atmega/ATmegaBOOT_168_atmega1280.hex'
p380
ssS'upload'
p381
(dp382
S'speed'
p383
S'57600'
p384
sS'maximum_size'
p385
S'126976'
p386
sS'protocol'
p387
S'arduino'
p388
ssg218
S'ATmega1280'
p389
sS'build'
p390
(dp391
S'mcu'
p392
S'atmega1280'
p393
sS'board'
p394
S'AVR_MEGA'
p395
sssS'atmega2560'
p396
(dp397
S'bootloader'
p398
(dp399
S'extended_fuses'
p400
S'0xFD'
p401
sS'high_fuses'
p402
S'0xD8'
p403
sS'file'
p404
S'stk500v2/stk500boot_v2_mega2560.hex'
p405
ssS'upload'
p406
(dp407
S'speed'
p408
S'115200'
p409
sS'maximum_size'
p410
S'258048'
p411
sS'protocol'
p412
S'wiring'
p413
ssg218
S'ATmega2560 (Mega 2560)'
p414
sS'build'
p415
(dp416
S'mcu'
p417
S'atmega2560'
p418
sS'board'
p419
S'AVR_MEGA2560'
p420
sssssS'pid'
p421
(dp422
g76
S'0x0042'
p423
sg78
S'0x0010'
p424
ssS'upload'
p425
(dp426
S'tool'
p427
S'avrdude'
p428
sS'maximum_data_size'
p429
S'8192'
p430
ssS'build'
p431
(dp432
S'core'
p433
S'arduino'
p434
sS'f_cpu'
p435
S'16000000L'
p436
sS'board'
p437
S'AVR_MEGA2560'
p438
sS'variant'
p439
S'mega'
p440
ssS'bootloader'
p441
(dp442
S'low_fuses'
p443
S'0xFF'
p444
sS'lock_bits'
p445
S'0x0F'
p446
sS'tool'
p447
S'avrdude'
p448
sS'unlock_bits'
p449
S'0x3F'
p450
ssaa(lp451
S'megaADK'
p452
a(dp453
S'name'
p454
S'Arduino Mega ADK'
p455
sS'vid'
p456
(dp457
g76
S'0x2341'
p458
sg78
S'0x2341'
p459
ssS'pid'
p460
(dp461
g76
S'0x0044'
p462
sg78
S'0x003f'
p463
ssS'upload'
p464
(dp465
S'speed'
p466
S'115200'
p467
sS'tool'
p468
S'avrdude'
p469
sS'protocol'
p470
S'wiring'
p471
sS'maximum_size'
p472
S'258048'
p473
sS'maximum_data_size'
p474
S'8192'
p475
ssS'build'
p476
(dp477
S'core'
p478
S'arduino'
p479
sS'mcu'
p480
S'atmega2560'
p481
sS'f_cpu'
p482
S'16000000L'
p483
sS'board'
p484
S'AVR_ADK'
p485
sS'variant'
p486
S'mega'
p487
ssS'bootloader'
p488
(dp489
S'extended_fuses'
p490
S'0xFD'
p491
sS'high_fuses'
p492
S'0xD8'
p493
sS'low_fuses'
p494
S'0xFF'
p495
sS'lock_bits'
p496
S'0x0F'
p497
sS'tool'
p498
S'avrdude'
p499
sS'file'
p500
S'stk500v2/stk500boot_v2_mega2560.hex'
p501
sS'unlock_bits'
p502
S'0x3F'
p503
ssaa(lp504
S'leonardo'
p505
a(dp506
S'name'
p507
S'Arduino Leonardo'
p508
sS'vid'
p509
(dp510
g76
S'0x2341'
p511
sg78
S'0x2341'
p512
ssS'pid'
p513
(dp514
g76
S'0x8036'
p515
sg78
S'0x0036'
p516
ssS'upload'
p517
(dp518
S'protocol'
p519
S'avr109'
p520
sS'disable_flushing'
p521
S'true'
p522
sS'tool'
p523
S'avrdude'
p524
sS'maximum_data_size'
p525
S'2560'
p526
sS'maximum_size'
p527
S'28672'
p528
sS'use_1200bps_touch'
p529
S'true'
p530
sS'speed'
p531
S'57600'
p532
sS'wait_for_upload_port'
p533
S'true'
p534
ssS'build'
p535
(dp536
S'core'
p537
S'arduino'
p538
sS'f_cpu'
p539
S'16000000L'
p540
sS'vid'
p541
S'0x2341'
p542
sS'usb_product'
p543
S'"Arduino Leonardo"'
p544
sS'pid'
p545
S'0x8036'
p546
sS'extra_flags'
p547
S'{build.usb_flags}'
p548
sS'board'
p549
S'AVR_LEONARDO'
p550
sS'mcu'
p551
S'atmega32u4'
p552
sS'variant'
p553
S'leonardo'
p554
ssS'bootloader'
p555
(dp556
S'extended_fuses'
p557
S'0xcb'
p558
sS'high_fuses'
p559
S'0xd8'
p560
sS'low_fuses'
p561
S'0xff'
p562
sS'lock_bits'
p563
S'0x2F'
p564
sS'tool'
p565
S'avrdude'
p566
sS'file'
p567
S'caterina/Caterina-Leonardo.hex'
p568
sS'unlock_bits'
p569
S'0x3F'
p570
ssaa(lp571
S'micro'
p572
a(dp573
S'bootloader'
p574
(dp575
S'extended_fuses'
p576
S'0xcb'
p577
sS'high_fuses'
p578
S'0xd8'
p579
sS'low_fuses'
p580
S'0xff'
p581
sS'lock_bits'
p582
S'0x2F'
p583
sS'tool'
p584
S'avrdude'
p585
sS'file'
p586
S'caterina/Caterina-Micro.hex'
p587
sS'unlock_bits'
p588
S'0x3F'
p589
ssS'build'
p590
(dp591
S'core'
p592
S'arduino'
p593
sS'f_cpu'
p594
S'16000000L'
p595
sS'vid'
p596
S'0x2341'
p597
sS'usb_product'
p598
S'"Arduino Micro"'
p599
sS'pid'
p600
S'0x8037'
p601
sS'extra_flags'
p602
S'{build.usb_flags}'
p603
sS'board'
p604
S'AVR_MICRO'
p605
sS'mcu'
p606
S'atmega32u4'
p607
sS'variant'
p608
S'micro'
p609
ssS'name'
p610
S'Arduino Micro'
p611
sS'upload'
p612
(dp613
S'protocol'
p614
S'avr109'
p615
sS'disable_flushing'
p616
S'true'
p617
sS'tool'
p618
S'avrdude'
p619
sS'maximum_data_size'
p620
S'2560'
p621
sS'maximum_size'
p622
S'28672'
p623
sS'use_1200bps_touch'
p624
S'true'
p625
sS'speed'
p626
S'57600'
p627
sS'wait_for_upload_port'
p628
S'true'
p629
ssaa(lp630
S'esplora'
p631
a(dp632
S'name'
p633
S'Arduino Esplora'
p634
sS'vid'
p635
(dp636
g76
S'0x2341'
p637
sg78
S'0x2341'
p638
ssS'pid'
p639
(dp640
g76
S'0x803c'
p641
sg78
S'0x003c'
p642
ssS'upload'
p643
(dp644
S'protocol'
p645
S'avr109'
p646
sS'disable_flushing'
p647
S'true'
p648
sS'tool'
p649
S'avrdude'
p650
sS'maximum_data_size'
p651
S'2560'
p652
sS'maximum_size'
p653
S'28672'
p654
sS'use_1200bps_touch'
p655
S'true'
p656
sS'speed'
p657
S'57600'
p658
sS'wait_for_upload_port'
p659
S'true'
p660
ssS'build'
p661
(dp662
S'core'
p663
S'arduino'
p664
sS'f_cpu'
p665
S'16000000L'
p666
sS'vid'
p667
S'0x2341'
p668
sS'usb_product'
p669
S'"Arduino Esplora"'
p670
sS'pid'
p671
S'0x803c'
p672
sS'extra_flags'
p673
S'{build.usb_flags}'
p674
sS'board'
p675
S'AVR_ESPLORA'
p676
sS'mcu'
p677
S'atmega32u4'
p678
sS'variant'
p679
S'leonardo'
p680
ssS'bootloader'
p681
(dp682
S'extended_fuses'
p683
S'0xcb'
p684
sS'high_fuses'
p685
S'0xd8'
p686
sS'low_fuses'
p687
S'0xff'
p688
sS'lock_bits'
p689
S'0x2F'
p690
sS'tool'
p691
S'avrdude'
p692
sS'file'
p693
S'caterina/Caterina-Esplora.hex'
p694
sS'unlock_bits'
p695
S'0x3F'
p696
ssaa(lp697
S'mini'
p698
a(dp699
S'menu'
p700
(dp701
S'cpu'
p702
(dp703
S'atmega168'
p704
(dp705
S'bootloader'
p706
(dp707
S'extended_fuses'
p708
S'0x00'
p709
sS'high_fuses'
p710
S'0xdd'
p711
sS'file'
p712
S'atmega/ATmegaBOOT_168_ng.hex'
p713
ssS'upload'
p714
(dp715
S'maximum_size'
p716
S'14336'
p717
sS'speed'
p718
S'19200'
p719
sS'maximum_data_size'
p720
S'1024'
p721
ssg218
S'ATmega168'
p722
sS'build'
p723
(dp724
S'mcu'
p725
S'atmega168'
p726
sssS'atmega328'
p727
(dp728
S'bootloader'
p729
(dp730
S'extended_fuses'
p731
S'0x05'
p732
sS'high_fuses'
p733
S'0xd8'
p734
sS'file'
p735
S'optiboot/optiboot_atmega328-Mini.hex'
p736
ssS'upload'
p737
(dp738
S'maximum_size'
p739
S'28672'
p740
sS'speed'
p741
S'115200'
p742
sS'maximum_data_size'
p743
S'2048'
p744
ssg218
S'ATmega328'
p745
sS'build'
p746
(dp747
S'mcu'
p748
S'atmega328p'
p749
sssssS'bootloader'
p750
(dp751
S'low_fuses'
p752
S'0xff'
p753
sS'lock_bits'
p754
S'0x0F'
p755
sS'tool'
p756
S'avrdude'
p757
sS'unlock_bits'
p758
S'0x3F'
p759
ssS'build'
p760
(dp761
S'core'
p762
S'arduino'
p763
sS'f_cpu'
p764
S'16000000L'
p765
sS'board'
p766
S'AVR_MINI'
p767
sS'variant'
p768
S'eightanaloginputs'
p769
ssS'name'
p770
S'Arduino Mini'
p771
sS'upload'
p772
(dp773
S'tool'
p774
S'avrdude'
p775
sS'protocol'
p776
S'arduino'
p777
ssaa(lp778
S'ethernet'
p779
a(dp780
S'bootloader'
p781
(dp782
S'extended_fuses'
p783
S'0x05'
p784
sS'high_fuses'
p785
S'0xde'
p786
sS'low_fuses'
p787
S'0xff'
p788
sS'lock_bits'
p789
S'0x0F'
p790
sS'tool'
p791
S'avrdude'
p792
sS'file'
p793
S'optiboot/optiboot_atmega328.hex'
p794
sS'unlock_bits'
p795
S'0x3F'
p796
ssS'build'
p797
(dp798
S'f_cpu'
p799
S'16000000L'
p800
sS'mcu'
p801
S'atmega328p'
p802
sS'variant'
p803
S'ethernet'
p804
sS'board'
p805
S'AVR_ETHERNET'
p806
sS'core'
p807
S'arduino'
p808
ssS'name'
p809
S'Arduino Ethernet'
p810
sS'upload'
p811
(dp812
S'speed'
p813
S'115200'
p814
sS'tool'
p815
S'avrdude'
p816
sS'protocol'
p817
S'arduino'
p818
sS'maximum_size'
p819
S'32256'
p820
sS'maximum_data_size'
p821
S'2048'
p822
ssaa(lp823
S'fio'
p824
a(dp825
S'bootloader'
p826
(dp827
S'extended_fuses'
p828
S'0x05'
p829
sS'high_fuses'
p830
S'0xDA'
p831
sS'low_fuses'
p832
S'0xFF'
p833
sS'lock_bits'
p834
S'0x0F'
p835
sS'tool'
p836
S'avrdude'
p837
sS'file'
p838
S'atmega/ATmegaBOOT_168_atmega328_pro_8MHz.hex'
p839
sS'unlock_bits'
p840
S'0x3F'
p841
ssS'build'
p842
(dp843
S'core'
p844
S'arduino'
p845
sS'mcu'
p846
S'atmega328p'
p847
sS'f_cpu'
p848
S'8000000L'
p849
sS'board'
p850
S'AVR_FIO'
p851
sS'variant'
p852
S'eightanaloginputs'
p853
ssS'name'
p854
S'Arduino Fio'
p855
sS'upload'
p856
(dp857
S'speed'
p858
S'57600'
p859
sS'tool'
p860
S'avrdude'
p861
sS'protocol'
p862
S'arduino'
p863
sS'maximum_size'
p864
S'30720'
p865
sS'maximum_data_size'
p866
S'2048'
p867
ssaa(lp868
S'bt'
p869
a(dp870
S'menu'
p871
(dp872
S'cpu'
p873
(dp874
S'atmega168'
p875
(dp876
S'bootloader'
p877
(dp878
S'extended_fuses'
p879
S'0x00'
p880
sS'high_fuses'
p881
S'0xdd'
p882
sS'file'
p883
S'bt/ATmegaBOOT_168.hex'
p884
ssS'upload'
p885
(dp886
S'maximum_size'
p887
S'14336'
p888
sS'maximum_data_size'
p889
S'1024'
p890
ssg218
S'ATmega168'
p891
sS'build'
p892
(dp893
S'mcu'
p894
S'atmega168'
p895
sssS'atmega328'
p896
(dp897
S'bootloader'
p898
(dp899
S'extended_fuses'
p900
S'0x05'
p901
sS'high_fuses'
p902
S'0xd8'
p903
sS'file'
p904
S'bt/ATmegaBOOT_168_atmega328_bt.hex'
p905
ssS'upload'
p906
(dp907
S'maximum_size'
p908
S'28672'
p909
sS'maximum_data_size'
p910
S'2048'
p911
ssg218
S'ATmega328'
p912
sS'build'
p913
(dp914
S'mcu'
p915
S'atmega328p'
p916
sssssS'bootloader'
p917
(dp918
S'low_fuses'
p919
S'0xff'
p920
sS'lock_bits'
p921
S'0x0F'
p922
sS'tool'
p923
S'avrdude'
p924
sS'unlock_bits'
p925
S'0x3F'
p926
ssS'build'
p927
(dp928
S'core'
p929
S'arduino'
p930
sS'f_cpu'
p931
S'16000000L'
p932
sS'board'
p933
S'AVR_BT'
p934
sS'variant'
p935
S'eightanaloginputs'
p936
ssS'name'
p937
S'Arduino BT'
p938
sS'upload'
p939
(dp940
S'speed'
p941
S'19200'
p942
sS'tool'
p943
S'avrdude'
p944
sS'protocol'
p945
S'arduino'
p946
sS'disable_flushing'
p947
S'true'
p948
ssaa(lp949
S'LilyPadUSB'
p950
a(dp951
S'bootloader'
p952
(dp953
S'extended_fuses'
p954
S'0xce'
p955
sS'high_fuses'
p956
S'0xd8'
p957
sS'low_fuses'
p958
S'0xff'
p959
sS'lock_bits'
p960
S'0x2F'
p961
sS'tool'
p962
S'avrdude'
p963
sS'file'
p964
S'caterina-LilyPadUSB/Caterina-LilyPadUSB.hex'
p965
sS'unlock_bits'
p966
S'0x3F'
p967
ssS'build'
p968
(dp969
S'core'
p970
S'arduino'
p971
sS'f_cpu'
p972
S'8000000L'
p973
sS'vid'
p974
S'0x1B4F'
p975
sS'usb_product'
p976
S'"LilyPad USB"'
p977
sS'pid'
p978
S'0x9208'
p979
sS'extra_flags'
p980
S'{build.usb_flags}'
p981
sS'board'
p982
S'AVR_LILYPAD_USB'
p983
sS'mcu'
p984
S'atmega32u4'
p985
sS'variant'
p986
S'leonardo'
p987
ssS'name'
p988
S'LilyPad Arduino USB'
p989
sS'upload'
p990
(dp991
S'protocol'
p992
S'avr109'
p993
sS'disable_flushing'
p994
S'true'
p995
sS'tool'
p996
S'avrdude'
p997
sS'maximum_data_size'
p998
S'2560'
p999
sS'maximum_size'
p1000
S'28672'
p1001
sS'use_1200bps_touch'
p1002
S'true'
p1003
sS'speed'
p1004
S'57600'
p1005
sS'wait_for_upload_port'
p1006
S'true'
p1007
ssaa(lp1008
S'lilypad'
p1009
a(dp1010
S'menu'
p1011
(dp1012
S'cpu'
p1013
(dp1014
S'atmega168'
p1015
(dp1016
S'bootloader'
p1017
(dp1018
S'low_fuses'
p1019
S'0xe2'
p1020
sS'extended_fuses'
p1021
S'0x00'
p1022
sS'high_fuses'
p1023
S'0xdd'
p1024
sS'file'
p1025
S'lilypad/LilyPadBOOT_168.hex'
p1026
ssS'upload'
p1027
(dp1028
S'maximum_size'
p1029
S'14336'
p1030
sS'speed'
p1031
S'19200'
p1032
sS'maximum_data_size'
p1033
S'1024'
p1034
ssg218
S'ATmega168'
p1035
sS'build'
p1036
(dp1037
S'mcu'
p1038
S'atmega168'
p1039
sssS'atmega328'
p1040
(dp1041
S'bootloader'
p1042
(dp1043
S'low_fuses'
p1044
S'0xFF'
p1045
sS'extended_fuses'
p1046
S'0x05'
p1047
sS'high_fuses'
p1048
S'0xDA'
p1049
sS'file'
p1050
S'atmega/ATmegaBOOT_168_atmega328_pro_8MHz.hex'
p1051
ssS'upload'
p1052
(dp1053
S'maximum_size'
p1054
S'30720'
p1055
sS'speed'
p1056
S'57600'
p1057
sS'maximum_data_size'
p1058
S'2048'
p1059
ssg218
S'ATmega328'
p1060
sS'build'
p1061
(dp1062
S'mcu'
p1063
S'atmega328p'
p1064
sssssS'bootloader'
p1065
(dp1066
S'lock_bits'
p1067
S'0x0F'
p1068
sS'tool'
p1069
S'avrdude'
p1070
sS'unlock_bits'
p1071
S'0x3F'
p1072
ssS'build'
p1073
(dp1074
S'core'
p1075
S'arduino'
p1076
sS'f_cpu'
p1077
S'8000000L'
p1078
sS'board'
p1079
S'AVR_LILYPAD'
p1080
sS'variant'
p1081
S'standard'
p1082
ssS'name'
p1083
S'LilyPad Arduino'
p1084
sS'upload'
p1085
(dp1086
S'tool'
p1087
S'avrdude'
p1088
sS'protocol'
p1089
S'arduino'
p1090
ssaa(lp1091
S'pro'
p1092
a(dp1093
S'menu'
p1094
(dp1095
S'cpu'
p1096
(dp1097
S'16MHzatmega328'
p1098
(dp1099
S'bootloader'
p1100
(dp1101
S'low_fuses'
p1102
S'0xFF'
p1103
sS'extended_fuses'
p1104
S'0x05'
p1105
sS'high_fuses'
p1106
S'0xDA'
p1107
sS'file'
p1108
S'atmega/ATmegaBOOT_168_atmega328.hex'
p1109
ssS'upload'
p1110
(dp1111
S'maximum_size'
p1112
S'30720'
p1113
sS'speed'
p1114
S'57600'
p1115
sS'maximum_data_size'
p1116
S'2048'
p1117
ssg218
S'ATmega328 (5V, 16 MHz)'
p1118
sS'build'
p1119
(dp1120
S'mcu'
p1121
S'atmega328p'
p1122
sS'f_cpu'
p1123
S'16000000L'
p1124
sssS'8MHzatmega328'
p1125
(dp1126
S'bootloader'
p1127
(dp1128
S'low_fuses'
p1129
S'0xFF'
p1130
sS'extended_fuses'
p1131
S'0x05'
p1132
sS'high_fuses'
p1133
S'0xDA'
p1134
sS'file'
p1135
S'atmega/ATmegaBOOT_168_atmega328_pro_8MHz.hex'
p1136
ssS'upload'
p1137
(dp1138
S'maximum_size'
p1139
S'30720'
p1140
sS'speed'
p1141
S'57600'
p1142
sS'maximum_data_size'
p1143
S'2048'
p1144
ssg218
S'ATmega328 (3.3V, 8 MHz)'
p1145
sS'build'
p1146
(dp1147
S'mcu'
p1148
S'atmega328p'
p1149
sS'f_cpu'
p1150
S'8000000L'
p1151
sssS'8MHzatmega168'
p1152
(dp1153
S'bootloader'
p1154
(dp1155
S'low_fuses'
p1156
S'0xc6'
p1157
sS'extended_fuses'
p1158
S'0x00'
p1159
sS'high_fuses'
p1160
S'0xdd'
p1161
sS'file'
p1162
S'atmega/ATmegaBOOT_168_pro_8MHz.hex'
p1163
ssS'upload'
p1164
(dp1165
S'maximum_size'
p1166
S'14336'
p1167
sS'speed'
p1168
S'19200'
p1169
sS'maximum_data_size'
p1170
S'1024'
p1171
ssg218
S'ATmega168 (3.3V, 8 MHz)'
p1172
sS'build'
p1173
(dp1174
S'mcu'
p1175
S'atmega168'
p1176
sS'f_cpu'
p1177
S'8000000L'
p1178
sssS'16MHzatmega168'
p1179
(dp1180
S'bootloader'
p1181
(dp1182
S'low_fuses'
p1183
S'0xff'
p1184
sS'extended_fuses'
p1185
S'0x00'
p1186
sS'high_fuses'
p1187
S'0xdd'
p1188
sS'file'
p1189
S'atmega/ATmegaBOOT_168_diecimila.hex'
p1190
ssS'upload'
p1191
(dp1192
S'maximum_size'
p1193
S'14336'
p1194
sS'speed'
p1195
S'19200'
p1196
sS'maximum_data_size'
p1197
S'1024'
p1198
ssg218
S'ATmega168 (5V, 16 MHz)'
p1199
sS'build'
p1200
(dp1201
S'mcu'
p1202
S'atmega168'
p1203
sS'f_cpu'
p1204
S'16000000L'
p1205
sssssS'bootloader'
p1206
(dp1207
S'lock_bits'
p1208
S'0x0F'
p1209
sS'tool'
p1210
S'avrdude'
p1211
sS'unlock_bits'
p1212
S'0x3F'
p1213
ssS'build'
p1214
(dp1215
S'core'
p1216
S'arduino'
p1217
sS'variant'
p1218
S'standard'
p1219
sS'board'
p1220
S'AVR_PRO'
p1221
ssS'name'
p1222
S'Arduino Pro or Pro Mini'
p1223
sS'upload'
p1224
(dp1225
S'tool'
p1226
S'avrdude'
p1227
sS'protocol'
p1228
S'arduino'
p1229
ssaa(lp1230
S'atmegang'
p1231
a(dp1232
S'menu'
p1233
(dp1234
S'cpu'
p1235
(dp1236
S'atmega168'
p1237
(dp1238
S'bootloader'
p1239
(dp1240
S'low_fuses'
p1241
S'0xff'
p1242
sS'extended_fuses'
p1243
S'0x00'
p1244
sS'high_fuses'
p1245
S'0xdd'
p1246
sS'file'
p1247
S'atmega/ATmegaBOOT_168_ng.hex'
p1248
ssS'upload'
p1249
(dp1250
S'maximum_size'
p1251
S'14336'
p1252
sS'maximum_data_size'
p1253
S'1024'
p1254
ssg218
S'ATmega168'
p1255
sS'build'
p1256
(dp1257
S'mcu'
p1258
S'atmega168'
p1259
sssS'atmega8'
p1260
(dp1261
S'bootloader'
p1262
(dp1263
S'low_fuses'
p1264
S'0xdf'
p1265
sS'high_fuses'
p1266
S'0xca'
p1267
sS'file'
p1268
S'atmega8/ATmegaBOOT-prod-firmware-2009-11-07.hex'
p1269
ssS'upload'
p1270
(dp1271
S'maximum_size'
p1272
S'7168'
p1273
sS'maximum_data_size'
p1274
S'1024'
p1275
ssg218
S'ATmega8'
p1276
sS'build'
p1277
(dp1278
S'mcu'
p1279
S'atmega8'
p1280
sssssS'bootloader'
p1281
(dp1282
S'lock_bits'
p1283
S'0x0F'
p1284
sS'tool'
p1285
S'avrdude'
p1286
sS'unlock_bits'
p1287
S'0x3F'
p1288
ssS'build'
p1289
(dp1290
S'core'
p1291
S'arduino'
p1292
sS'mcu'
p1293
S'atmegang'
p1294
sS'f_cpu'
p1295
S'16000000L'
p1296
sS'board'
p1297
S'AVR_NG'
p1298
sS'variant'
p1299
S'standard'
p1300
ssS'name'
p1301
S'Arduino NG or older'
p1302
sS'upload'
p1303
(dp1304
S'speed'
p1305
S'19200'
p1306
sS'tool'
p1307
S'avrdude'
p1308
sS'protocol'
p1309
S'arduino'
p1310
ssaa(lp1311
S'robotControl'
p1312
a(dp1313
S'bootloader'
p1314
(dp1315
S'extended_fuses'
p1316
S'0xcb'
p1317
sS'high_fuses'
p1318
S'0xd8'
p1319
sS'low_fuses'
p1320
S'0xff'
p1321
sS'lock_bits'
p1322
S'0x2F'
p1323
sS'tool'
p1324
S'avrdude'
p1325
sS'file'
p1326
S'caterina-Arduino_Robot/Caterina-Robot-Control.hex'
p1327
sS'unlock_bits'
p1328
S'0x3F'
p1329
ssS'build'
p1330
(dp1331
S'core'
p1332
S'arduino'
p1333
sS'f_cpu'
p1334
S'16000000L'
p1335
sS'vid'
p1336
S'0x2341'
p1337
sS'usb_product'
p1338
S'"Robot Control"'
p1339
sS'pid'
p1340
S'0x8038'
p1341
sS'extra_flags'
p1342
S'{build.usb_flags}'
p1343
sS'board'
p1344
S'AVR_ROBOT_CONTROL'
p1345
sS'mcu'
p1346
S'atmega32u4'
p1347
sS'variant'
p1348
S'robot_control'
p1349
ssS'name'
p1350
S'Arduino Robot Control'
p1351
sS'upload'
p1352
(dp1353
S'protocol'
p1354
S'avr109'
p1355
sS'disable_flushing'
p1356
S'true'
p1357
sS'tool'
p1358
S'avrdude'
p1359
sS'maximum_data_size'
p1360
S'2560'
p1361
sS'maximum_size'
p1362
S'28672'
p1363
sS'use_1200bps_touch'
p1364
S'true'
p1365
sS'speed'
p1366
S'57600'
p1367
sS'wait_for_upload_port'
p1368
S'true'
p1369
ssaa(lp1370
S'robotMotor'
p1371
a(dp1372
S'bootloader'
p1373
(dp1374
S'extended_fuses'
p1375
S'0xcb'
p1376
sS'high_fuses'
p1377
S'0xd8'
p1378
sS'low_fuses'
p1379
S'0xff'
p1380
sS'lock_bits'
p1381
S'0x2F'
p1382
sS'tool'
p1383
S'avrdude'
p1384
sS'file'
p1385
S'caterina-Arduino_Robot/Caterina-Robot-Motor.hex'
p1386
sS'unlock_bits'
p1387
S'0x3F'
p1388
ssS'build'
p1389
(dp1390
S'core'
p1391
S'arduino'
p1392
sS'f_cpu'
p1393
S'16000000L'
p1394
sS'vid'
p1395
S'0x2341'
p1396
sS'usb_product'
p1397
S'"Robot Motor"'
p1398
sS'pid'
p1399
S'0x8039'
p1400
sS'extra_flags'
p1401
S'{build.usb_flags}'
p1402
sS'board'
p1403
S'AVR_ROBOT_MOTOR'
p1404
sS'mcu'
p1405
S'atmega32u4'
p1406
sS'variant'
p1407
S'robot_motor'
p1408
ssS'name'
p1409
S'Arduino Robot Motor'
p1410
sS'upload'
p1411
(dp1412
S'protocol'
p1413
S'avr109'
p1414
sS'disable_flushing'
p1415
S'true'
p1416
sS'tool'
p1417
S'avrdude'
p1418
sS'maximum_data_size'
p1419
S'2560'
p1420
sS'maximum_size'
p1421
S'28672'
p1422
sS'use_1200bps_touch'
p1423
S'true'
p1424
sS'speed'
p1425
S'57600'
p1426
sS'wait_for_upload_port'
p1427
S'true'
p1428
ssaatp1429
Rp1430
(dp1431
S'default'
p1432
S'uno'
p1433
sbtp1434
a(S'used_libs'
p1435
(lp1436
S'/Applications/Arduino.app/Contents/Resources/Java/hardware/arduino/avr/cores/arduino'
p1437
atp1438
a(S'make'
p1439
S'/Applications/Arduino.app/Contents/Resources/Java/hardware/tools/avr/bin/make'
p1440
tp1441
a(S'arduino_libraries_dir'
p1442
S'/Applications/Arduino.app/Contents/Resources/Java/libraries'
p1443
tp1444
a(S'cc'
p1445
S'/Applications/Arduino.app/Contents/Resources/Java/hardware/tools/avr/bin/avr-gcc'
p1446
tp1447
a(S'cflags'
p1448
g2
(g3
g4
(lp1449
tp1450
Rp1451
tp1452
a(S'cxxflags'
p1453
g2
(g3
g4
(lp1454
S'-fno-exceptions'
p1455
atp1456
Rp1457
tp1458
a(S'arduino_variants_dir'
p1459
S'/Applications/Arduino.app/Contents/Resources/Java/hardware/arduino/avr/variants'
p1460
tp1461
a(S'stty'
p1462
S'/bin/stty'
p1463
tp1464
a(S'version.txt'
p1465
S'/Applications/Arduino.app/Contents/Resources/Java/lib/version.txt'
p1466
tp1467
a(S'arduino_core_dir'
p1468
g1437
tp1469
a(S'boards.txt'
p1470
S'/Applications/Arduino.app/Contents/Resources/Java/hardware/arduino/avr/boards.txt'
p1471
tp1472
a(S'avrdude.conf'
p1473
S'/Applications/Arduino.app/Contents/Resources/Java/hardware/tools/avr/etc/avrdude.conf'
p1474
tp1475
a(S'deps'
p1476
g2
(g3
g4
(lp1477
S'.build/uno/src/dependencies.d'
p1478
aS'.build/uno/arduino/dependencies.d'
p1479
atp1480
Rp1481
tp1482
a.