(lp0
(S'arduino_lib_version'
p1
ccopy_reg
_reconstructor
p2
(cino.environment
Version
p3
c__builtin__
tuple
p4
(I1
I5
I5
tp5
tp6
Rp7
tp8
a(S'boards.txt'
p9
S'/usr/local/share/arduino/hardware/arduino/boards.txt'
p10
tp11
a(S'board_models'
p12
cino.environment
BoardModels
p13
((lp14
(lp15
S'menu'
p16
a(dp17
S'cpu'
p18
S'Processor'
p19
saa(lp20
S'yun'
p21
a(dp22
S'name'
p23
S'Arduino Y\xc3\xban'
p24
sS'vid'
p25
(dp26
S'1'
p27
S'0x2341'
p28
sS'0'
p29
S'0x2341'
p30
ssS'pid'
p31
(dp32
g27
S'0x8041'
p33
sg29
S'0x0041'
p34
ssS'upload'
p35
(dp36
S'protocol'
p37
S'avr109'
p38
sS'disable_flushing'
p39
S'true'
p40
sS'tool'
p41
S'avrdude'
p42
sS'maximum_data_size'
p43
S'2560'
p44
sS'via_ssh'
p45
S'true'
p46
sS'maximum_size'
p47
S'28672'
p48
sS'use_1200bps_touch'
p49
S'true'
p50
sS'speed'
p51
S'57600'
p52
sS'wait_for_upload_port'
p53
S'true'
p54
ssS'build'
p55
(dp56
S'core'
p57
S'arduino'
p58
sS'f_cpu'
p59
S'16000000L'
p60
sS'vid'
p61
S'0x2341'
p62
sS'usb_product'
p63
S'"Arduino Yun"'
p64
sS'pid'
p65
S'0x8041'
p66
sS'extra_flags'
p67
S'{build.usb_flags}'
p68
sS'board'
p69
S'AVR_YUN'
p70
sS'mcu'
p71
S'atmega32u4'
p72
sS'variant'
p73
S'yun'
p74
ssS'bootloader'
p75
(dp76
S'extended_fuses'
p77
S'0xfb'
p78
sS'high_fuses'
p79
S'0xd8'
p80
sS'low_fuses'
p81
S'0xff'
p82
sS'lock_bits'
p83
S'0x2F'
p84
sS'tool'
p85
S'avrdude'
p86
sS'file'
p87
S'caterina/Caterina-Yun.hex'
p88
sS'unlock_bits'
p89
S'0x3F'
p90
ssaa(lp91
S'uno'
p92
a(dp93
S'name'
p94
S'Arduino Uno'
p95
sS'vid'
p96
(dp97
g27
S'0x2341'
p98
sg29
S'0x2341'
p99
ssS'pid'
p100
(dp101
g27
S'0x0001'
p102
sg29
S'0x0043'
p103
ssS'upload'
p104
(dp105
S'speed'
p106
S'115200'
p107
sS'tool'
p108
S'avrdude'
p109
sS'protocol'
p110
S'arduino'
p111
sS'maximum_size'
p112
S'32256'
p113
sS'maximum_data_size'
p114
S'2048'
p115
ssS'build'
p116
(dp117
S'core'
p118
S'arduino'
p119
sS'mcu'
p120
S'atmega328p'
p121
sS'f_cpu'
p122
S'16000000L'
p123
sS'board'
p124
S'AVR_UNO'
p125
sS'variant'
p126
S'standard'
p127
ssS'bootloader'
p128
(dp129
S'extended_fuses'
p130
S'0x05'
p131
sS'high_fuses'
p132
S'0xDE'
p133
sS'low_fuses'
p134
S'0xFF'
p135
sS'lock_bits'
p136
S'0x0F'
p137
sS'tool'
p138
S'avrdude'
p139
sS'file'
p140
S'optiboot/optiboot_atmega328.hex'
p141
sS'unlock_bits'
p142
S'0x3F'
p143
ssaa(lp144
S'atmega328diecimila'
p145
a(dp146
S'build'
p147
(dp148
S'core'
p149
S'arduino'
p150
sS'f_cpu'
p151
S'16000000L'
p152
sS'board'
p153
S'AVR_DUEMILANOVE'
p154
sS'variant'
p155
S'standard'
p156
ssS'bootloader'
p157
(dp158
S'low_fuses'
p159
S'0xFF'
p160
sS'lock_bits'
p161
S'0x0F'
p162
sS'tool'
p163
S'avrdude'
p164
sS'unlock_bits'
p165
S'0x3F'
p166
ssS'name'
p167
S'Arduino Duemilanove or Diecimila'
p168
sS'menu'
p169
(dp170
S'cpu'
p171
(dp172
S'atmega328'
p173
S'ATmega328'
p174
sssS'upload'
p175
(dp176
S'tool'
p177
S'avrdude'
p178
sS'protocol'
p179
S'arduino'
p180
ssaatp181
Rp182
(dp183
S'default'
p184
S'uno'
p185
sbtp186
a(S'build_dir'
p187
S'.build/uno'
p188
tp189
a(S'version.txt'
p190
S'/Applications/Arduino.app/Contents/Resources/Java/lib/version.txt'
p191
tp192
a.